target datalayout = "e-m:e-p270:32:32-p271:32:32-p272:64:64-i64:64-i128:128-f80:128-n8:16:32:64-S128"
target triple = "x86_64-pc-linux-gnu"

%struct.nghttp2_stream = type { i32, %struct.nghttp2_pq_entry, i64, i64, i64, i64, ptr, ptr, ptr, i64, i32, i32, i32, i32, i32, i32, i32, i16, i32, i8, i8, i8, i8, i8, i8 }
%struct.nghttp2_pq_entry = type { i64 }
%struct.nghttp2_session = type { %struct.nghttp2_map, %struct.nghttp2_outbound_queue, %struct.nghttp2_outbound_queue, %struct.nghttp2_outbound_queue, [8 x %struct.anon], %struct.nghttp2_active_outbound_item, %struct.nghttp2_inbound_frame, %struct.nghttp2_hd_deflater, %struct.nghttp2_hd_inflater, %struct.nghttp2_session_callbacks, %struct.nghttp2_mem, ptr, ptr, %struct.nghttp2_ratelim, i64, i64, i64, i64, i64, i64, i64, i64, i64, i64, i64, i64, i64, i64, i32, i32, i32, i32, i32, i32, i32, i32, i32, i32, i32, i32, i8, %struct.nghttp2_settings_storage, %struct.nghttp2_settings_storage, i32, i32, i32, i8, i8, i8, i8, i8, i8, [32 x i8] }
%struct.nghttp2_map = type { ptr, ptr, i64, i64 }
%struct.nghttp2_outbound_queue = type { ptr, ptr, i64 }
%struct.anon = type { %struct.nghttp2_pq }
%struct.nghttp2_pq = type { ptr, ptr, i64, i64, ptr }
%struct.nghttp2_active_outbound_item = type { ptr, %struct.nghttp2_bufs, i32 }
%struct.nghttp2_bufs = type { ptr, ptr, ptr, i64, i64, i64, i64, i64 }
%struct.nghttp2_inbound_frame = type { %union.nghttp2_frame, %union.nghttp2_ext_frame_payload, ptr, %struct.nghttp2_buf, %struct.nghttp2_buf, ptr, i64, i64, i64, i64, i32, [32 x i8] }
%union.nghttp2_frame = type { %struct.nghttp2_headers }
%struct.nghttp2_headers = type { %struct.nghttp2_frame_hd, i64, %struct.nghttp2_priority_spec, ptr, i64, i32 }
%struct.nghttp2_frame_hd = type { i64, i32, i8, i8, i8 }
%struct.nghttp2_priority_spec = type { i32, i32, i8 }
%union.nghttp2_ext_frame_payload = type { %struct.nghttp2_ext_altsvc }
%struct.nghttp2_ext_altsvc = type { ptr, i64, ptr, i64 }
%struct.nghttp2_buf = type { ptr, ptr, ptr, ptr, ptr }
%struct.nghttp2_hd_deflater = type { %struct.nghttp2_hd_context, %struct.nghttp2_hd_map, i64, i64, i8 }
%struct.nghttp2_hd_context = type { %struct.nghttp2_hd_ringbuf, ptr, i64, i64, i32, i8 }
%struct.nghttp2_hd_ringbuf = type { ptr, i64, i64, i64 }
%struct.nghttp2_hd_map = type { [128 x ptr] }
%struct.nghttp2_hd_inflater = type { %struct.nghttp2_hd_context, %struct.nghttp2_hd_huff_decode_context, %struct.nghttp2_buf, %struct.nghttp2_buf, ptr, ptr, ptr, ptr, i64, i64, i64, i64, i64, i32, i32, i8, i8, i8 }
%struct.nghttp2_hd_huff_decode_context = type { i16 }
%struct.nghttp2_session_callbacks = type { ptr, ptr, ptr, ptr, ptr, ptr, ptr, ptr, ptr, ptr, ptr, ptr, ptr, ptr, ptr, ptr, ptr, ptr, ptr, ptr, ptr, ptr, ptr, ptr, ptr, ptr, ptr, ptr }
%struct.nghttp2_mem = type { ptr, ptr, ptr, ptr, ptr }
%struct.nghttp2_ratelim = type { i64, i64, i64, i64 }
%struct.nghttp2_settings_storage = type { i32, i32, i32, i32, i32, i32, i32, i32 }
%struct.nghttp2_outbound_item = type { %union.nghttp2_frame, %union.nghttp2_ext_frame_payload, %union.nghttp2_aux_data, i64, ptr, i8 }
%union.nghttp2_aux_data = type { %struct.nghttp2_headers_aux_data }
%struct.nghttp2_headers_aux_data = type { %struct.nghttp2_data_provider_wrap, ptr, i32, i8 }
%struct.nghttp2_data_provider_wrap = type { i32, %union.anon }
%union.anon = type { %struct.anon.0 }
%struct.anon.0 = type { %union.nghttp2_data_source, ptr }
%union.nghttp2_data_source = type { ptr }
%struct.nghttp2_update_window_size_arg = type { ptr, i32, i32 }

; Function Attrs: nounwind uwtable
define hidden i32 @nghttp2_session_add_window_update(ptr noundef %0, i8 noundef zeroext %1, i32 noundef %2, i32 noundef %3) #0 {
  %5 = alloca i32, align 4
  %6 = alloca ptr, align 8
  %7 = alloca i8, align 1
  %8 = alloca i32, align 4
  %9 = alloca i32, align 4
  %10 = alloca i32, align 4
  %11 = alloca ptr, align 8
  %12 = alloca ptr, align 8
  %13 = alloca ptr, align 8
  %14 = alloca i32, align 4
  store ptr %0, ptr %6, align 8, !tbaa !7
  store i8 %1, ptr %7, align 1, !tbaa !117
  store i32 %2, ptr %8, align 4, !tbaa !3
  store i32 %3, ptr %9, align 4, !tbaa !3
  call void @llvm.lifetime.start.p0(i64 4, ptr %10) #10
  call void @llvm.lifetime.start.p0(i64 8, ptr %11) #10
  call void @llvm.lifetime.start.p0(i64 8, ptr %12) #10
  call void @llvm.lifetime.start.p0(i64 8, ptr %13) #10
  %15 = load ptr, ptr %6, align 8, !tbaa !7
  %16 = getelementptr inbounds nuw %struct.nghttp2_session, ptr %15, i32 0, i32 10
  store ptr %16, ptr %13, align 8, !tbaa !53
  %17 = load ptr, ptr %13, align 8, !tbaa !53
  %18 = call ptr @nghttp2_mem_malloc(ptr noundef %17, i64 noundef 160)
  store ptr %18, ptr %11, align 8, !tbaa !108
  %19 = load ptr, ptr %11, align 8, !tbaa !108
  %20 = icmp eq ptr %19, null
  br i1 %20, label %21, label %22

21:                                               ; preds = %4
  store i32 -901, ptr %5, align 4
  store i32 1, ptr %14, align 4
  br label %41

22:                                               ; preds = %4
  %23 = load ptr, ptr %11, align 8, !tbaa !108
  call void @nghttp2_outbound_item_init(ptr noundef %23)
  %24 = load ptr, ptr %11, align 8, !tbaa !108
  %25 = getelementptr inbounds nuw %struct.nghttp2_outbound_item, ptr %24, i32 0, i32 0
  store ptr %25, ptr %12, align 8, !tbaa !53
  %26 = load ptr, ptr %12, align 8, !tbaa !53
  %27 = load i8, ptr %7, align 1, !tbaa !117
  %28 = load i32, ptr %8, align 4, !tbaa !3
  %29 = load i32, ptr %9, align 4, !tbaa !3
  call void @nghttp2_frame_window_update_init(ptr noundef %26, i8 noundef zeroext %27, i32 noundef %28, i32 noundef %29)
  %30 = load ptr, ptr %6, align 8, !tbaa !7
  %31 = load ptr, ptr %11, align 8, !tbaa !108
  %32 = call i32 @nghttp2_session_add_item(ptr noundef %30, ptr noundef %31)
  store i32 %32, ptr %10, align 4, !tbaa !3
  %33 = load i32, ptr %10, align 4, !tbaa !3
  %34 = icmp ne i32 %33, 0
  br i1 %34, label %35, label %40

35:                                               ; preds = %22
  %36 = load ptr, ptr %12, align 8, !tbaa !53
  call void @nghttp2_frame_window_update_free(ptr noundef %36)
  %37 = load ptr, ptr %13, align 8, !tbaa !53
  %38 = load ptr, ptr %11, align 8, !tbaa !108
  call void @nghttp2_mem_free(ptr noundef %37, ptr noundef %38)
  %39 = load i32, ptr %10, align 4, !tbaa !3
  store i32 %39, ptr %5, align 4
  store i32 1, ptr %14, align 4
  br label %41

40:                                               ; preds = %22
  store i32 0, ptr %5, align 4
  store i32 1, ptr %14, align 4
  br label %41

41:                                               ; preds = %40, %35, %21
  call void @llvm.lifetime.end.p0(i64 8, ptr %13) #10
  call void @llvm.lifetime.end.p0(i64 8, ptr %12) #10
  call void @llvm.lifetime.end.p0(i64 8, ptr %11) #10
  call void @llvm.lifetime.end.p0(i64 4, ptr %10) #10
  %42 = load i32, ptr %5, align 4
  ret i32 %42
}

; Function Attrs: nounwind uwtable
define internal i32 @session_update_stream_consumed_size(ptr noundef %0, ptr noundef %1, i64 noundef %2) #0 {
  %4 = alloca ptr, align 8
  %5 = alloca ptr, align 8
  %6 = alloca i64, align 8
  store ptr %0, ptr %4, align 8, !tbaa !7
  store ptr %1, ptr %5, align 8, !tbaa !43
  store i64 %2, ptr %6, align 8, !tbaa !41
  %7 = load ptr, ptr %4, align 8, !tbaa !7
  %8 = load ptr, ptr %5, align 8, !tbaa !43
  %9 = getelementptr inbounds nuw %struct.nghttp2_stream, ptr %8, i32 0, i32 13
  %10 = load ptr, ptr %5, align 8, !tbaa !43
  %11 = getelementptr inbounds nuw %struct.nghttp2_stream, ptr %10, i32 0, i32 12
  %12 = load ptr, ptr %5, align 8, !tbaa !43
  %13 = getelementptr inbounds nuw %struct.nghttp2_stream, ptr %12, i32 0, i32 22
  %14 = load i8, ptr %13, align 1, !tbaa !127
  %15 = load ptr, ptr %5, align 8, !tbaa !43
  %16 = getelementptr inbounds nuw %struct.nghttp2_stream, ptr %15, i32 0, i32 10
  %17 = load i32, ptr %16, align 8, !tbaa !145
  %18 = load i64, ptr %6, align 8, !tbaa !41
  %19 = load ptr, ptr %5, align 8, !tbaa !43
  %20 = getelementptr inbounds nuw %struct.nghttp2_stream, ptr %19, i32 0, i32 15
  %21 = load i32, ptr %20, align 4, !tbaa !220
  %22 = call i32 @session_update_consumed_size(ptr noundef %7, ptr noundef %9, ptr noundef %11, i8 noundef zeroext %14, i32 noundef %17, i64 noundef %18, i32 noundef %21)
  ret i32 %22
}

; Function Attrs: nounwind uwtable
define internal i32 @update_local_initial_window_size_func(ptr noundef %0, ptr noundef %1) #0 {
  %3 = alloca i32, align 4
  %4 = alloca ptr, align 8
  %5 = alloca ptr, align 8
  %6 = alloca i32, align 4
  %7 = alloca ptr, align 8
  %8 = alloca ptr, align 8
  %9 = alloca i32, align 4
  store ptr %0, ptr %4, align 8, !tbaa !53
  store ptr %1, ptr %5, align 8, !tbaa !53
  call void @llvm.lifetime.start.p0(i64 4, ptr %6) #10
  call void @llvm.lifetime.start.p0(i64 8, ptr %7) #10
  call void @llvm.lifetime.start.p0(i64 8, ptr %8) #10
  %10 = load ptr, ptr %5, align 8, !tbaa !53
  store ptr %10, ptr %7, align 8, !tbaa !53
  %11 = load ptr, ptr %4, align 8, !tbaa !53
  store ptr %11, ptr %8, align 8, !tbaa !43
  %12 = load ptr, ptr %8, align 8, !tbaa !43
  %13 = load ptr, ptr %7, align 8, !tbaa !53
  %14 = getelementptr inbounds nuw %struct.nghttp2_update_window_size_arg, ptr %13, i32 0, i32 1
  %15 = load i32, ptr %14, align 8, !tbaa !185
  %16 = load ptr, ptr %7, align 8, !tbaa !53
  %17 = getelementptr inbounds nuw %struct.nghttp2_update_window_size_arg, ptr %16, i32 0, i32 2
  %18 = load i32, ptr %17, align 4, !tbaa !186
  %19 = call i32 @nghttp2_stream_update_local_initial_window_size(ptr noundef %12, i32 noundef %15, i32 noundef %18)
  store i32 %19, ptr %6, align 4, !tbaa !3
  %20 = load i32, ptr %6, align 4, !tbaa !3
  %21 = icmp ne i32 %20, 0
  br i1 %21, label %22, label %30

22:                                               ; preds = %2
  %23 = load ptr, ptr %7, align 8, !tbaa !53
  %24 = getelementptr inbounds nuw %struct.nghttp2_update_window_size_arg, ptr %23, i32 0, i32 0
  %25 = load ptr, ptr %24, align 8, !tbaa !183
  %26 = load ptr, ptr %8, align 8, !tbaa !43
  %27 = getelementptr inbounds nuw %struct.nghttp2_stream, ptr %26, i32 0, i32 10
  %28 = load i32, ptr %27, align 8, !tbaa !145
  %29 = call i32 @nghttp2_session_add_rst_stream(ptr noundef %25, i32 noundef %28, i32 noundef 3)
  store i32 %29, ptr %3, align 4
  store i32 1, ptr %9, align 4
  br label %78

30:                                               ; preds = %2
  %31 = load ptr, ptr %8, align 8, !tbaa !43
  %32 = getelementptr inbounds nuw %struct.nghttp2_stream, ptr %31, i32 0, i32 22
  %33 = load i8, ptr %32, align 1, !tbaa !127
  %34 = icmp ne i8 %33, 0
  br i1 %34, label %35, label %36

35:                                               ; preds = %30
  store i32 0, ptr %3, align 4
  store i32 1, ptr %9, align 4
  br label %78

36:                                               ; preds = %30
  %37 = load ptr, ptr %7, align 8, !tbaa !53
  %38 = getelementptr inbounds nuw %struct.nghttp2_update_window_size_arg, ptr %37, i32 0, i32 0
  %39 = load ptr, ptr %38, align 8, !tbaa !183
  %40 = getelementptr inbounds nuw %struct.nghttp2_session, ptr %39, i32 0, i32 43
  %41 = load i32, ptr %40, align 4, !tbaa !77
  %42 = and i32 %41, 1
  %43 = icmp ne i32 %42, 0
  br i1 %43, label %44, label %50

44:                                               ; preds = %36
  %45 = load ptr, ptr %7, align 8, !tbaa !53
  %46 = getelementptr inbounds nuw %struct.nghttp2_update_window_size_arg, ptr %45, i32 0, i32 0
  %47 = load ptr, ptr %46, align 8, !tbaa !183
  %48 = load ptr, ptr %8, align 8, !tbaa !43
  %49 = call i32 @session_update_stream_consumed_size(ptr noundef %47, ptr noundef %48, i64 noundef 0)
  store i32 %49, ptr %3, align 4
  store i32 1, ptr %9, align 4
  br label %78

50:                                               ; preds = %36
  %51 = load ptr, ptr %8, align 8, !tbaa !43
  %52 = getelementptr inbounds nuw %struct.nghttp2_stream, ptr %51, i32 0, i32 15
  %53 = load i32, ptr %52, align 4, !tbaa !220
  %54 = load ptr, ptr %8, align 8, !tbaa !43
  %55 = getelementptr inbounds nuw %struct.nghttp2_stream, ptr %54, i32 0, i32 12
  %56 = load i32, ptr %55, align 8, !tbaa !221
  %57 = call i32 @nghttp2_should_send_window_update(i32 noundef %53, i32 noundef %56)
  %58 = icmp ne i32 %57, 0
  br i1 %58, label %59, label %77

59:                                               ; preds = %50
  %60 = load ptr, ptr %7, align 8, !tbaa !53
  %61 = getelementptr inbounds nuw %struct.nghttp2_update_window_size_arg, ptr %60, i32 0, i32 0
  %62 = load ptr, ptr %61, align 8, !tbaa !183
  %63 = load ptr, ptr %8, align 8, !tbaa !43
  %64 = getelementptr inbounds nuw %struct.nghttp2_stream, ptr %63, i32 0, i32 10
  %65 = load i32, ptr %64, align 8, !tbaa !145
  %66 = load ptr, ptr %8, align 8, !tbaa !43
  %67 = getelementptr inbounds nuw %struct.nghttp2_stream, ptr %66, i32 0, i32 12
  %68 = load i32, ptr %67, align 8, !tbaa !221
  %69 = call i32 @nghttp2_session_add_window_update(ptr noundef %62, i8 noundef zeroext 0, i32 noundef %65, i32 noundef %68)
  store i32 %69, ptr %6, align 4, !tbaa !3
  %70 = load i32, ptr %6, align 4, !tbaa !3
  %71 = icmp ne i32 %70, 0
  br i1 %71, label %72, label %74

72:                                               ; preds = %59
  %73 = load i32, ptr %6, align 4, !tbaa !3
  store i32 %73, ptr %3, align 4
  store i32 1, ptr %9, align 4
  br label %78

74:                                               ; preds = %59
  %75 = load ptr, ptr %8, align 8, !tbaa !43
  %76 = getelementptr inbounds nuw %struct.nghttp2_stream, ptr %75, i32 0, i32 12
  store i32 0, ptr %76, align 8, !tbaa !221
  br label %77

77:                                               ; preds = %74, %50
  store i32 0, ptr %3, align 4
  store i32 1, ptr %9, align 4
  br label %78

78:                                               ; preds = %77, %72, %44, %35, %22
  call void @llvm.lifetime.end.p0(i64 8, ptr %8) #10
  call void @llvm.lifetime.end.p0(i64 8, ptr %7) #10
  call void @llvm.lifetime.end.p0(i64 4, ptr %6) #10
  %79 = load i32, ptr %3, align 4
  ret i32 %79
}