; Function Attrs: nounwind uwtable
define internal i32 @update_local_initial_window_size_func(ptr noundef %0, ptr noundef readonly captures(none) %1) #1 {
  %3 = getelementptr inbounds nuw i8, ptr %1, i64 8
  %4 = load i32, ptr %3, align 8, !tbaa !184
  %5 = getelementptr inbounds nuw i8, ptr %1, i64 12
  %6 = load i32, ptr %5, align 4, !tbaa !185
  %7 = tail call i32 @nghttp2_stream_update_local_initial_window_size(ptr noundef %0, i32 noundef %4, i32 noundef %6) #16
  %.not = icmp eq i32 %7, 0
  br i1 %.not, label %13, label %8

8:                                                ; preds = %2
  %9 = load ptr, ptr %1, align 8, !tbaa !182
  %10 = getelementptr inbounds nuw i8, ptr %0, i64 80
  %11 = load i32, ptr %10, align 8, !tbaa !140
  %12 = tail call i32 @nghttp2_session_add_rst_stream(ptr noundef %9, i32 noundef %11, i32 noundef 3)
  br label %nghttp2_session_add_window_update.exit.thread

13:                                               ; preds = %2
  %14 = getelementptr inbounds nuw i8, ptr %0, i64 119
  %15 = load i8, ptr %14, align 1, !tbaa !120
  %.not21 = icmp eq i8 %15, 0
  br i1 %.not21, label %16, label %nghttp2_session_add_window_update.exit.thread

16:                                               ; preds = %13
  %17 = load ptr, ptr %1, align 8, !tbaa !182
  %18 = getelementptr inbounds nuw i8, ptr %17, i64 2660
  %19 = load i32, ptr %18, align 4, !tbaa !74
  %20 = and i32 %19, 1
  %.not22 = icmp eq i32 %20, 0
  br i1 %.not22, label %29, label %21

21:                                               ; preds = %16
  %22 = getelementptr inbounds nuw i8, ptr %0, i64 92
  %23 = getelementptr inbounds nuw i8, ptr %0, i64 88
  %24 = getelementptr inbounds nuw i8, ptr %0, i64 80
  %25 = load i32, ptr %24, align 8, !tbaa !140
  %26 = getelementptr inbounds nuw i8, ptr %0, i64 100
  %27 = load i32, ptr %26, align 4, !tbaa !169
  %28 = tail call fastcc i32 @session_update_consumed_size(ptr noundef nonnull %17, ptr noundef nonnull %22, ptr noundef nonnull %23, i8 noundef zeroext 0, i32 noundef %25, i64 noundef 0, i32 noundef %27)
  br label %nghttp2_session_add_window_update.exit.thread

29:                                               ; preds = %16
  %30 = getelementptr inbounds nuw i8, ptr %0, i64 100
  %31 = load i32, ptr %30, align 4, !tbaa !169
  %32 = getelementptr inbounds nuw i8, ptr %0, i64 88
  %33 = load i32, ptr %32, align 8, !tbaa !223
  %34 = tail call i32 @nghttp2_should_send_window_update(i32 noundef %31, i32 noundef %33) #16
  %.not23 = icmp eq i32 %34, 0
  br i1 %.not23, label %nghttp2_session_add_window_update.exit.thread, label %35

35:                                               ; preds = %29
  %36 = load ptr, ptr %1, align 8, !tbaa !182
  %37 = getelementptr inbounds nuw i8, ptr %0, i64 80
  %38 = load i32, ptr %37, align 8, !tbaa !140
  %39 = load i32, ptr %32, align 8, !tbaa !223
  %40 = getelementptr inbounds nuw i8, ptr %36, i64 2344
  %41 = tail call ptr @nghttp2_mem_malloc(ptr noundef nonnull %40, i64 noundef 160) #16
  %42 = icmp eq ptr %41, null
  br i1 %42, label %nghttp2_session_add_window_update.exit.thread, label %43

43:                                               ; preds = %35
  tail call void @nghttp2_outbound_item_init(ptr noundef nonnull %41) #16
  tail call void @nghttp2_frame_window_update_init(ptr noundef nonnull %41, i8 noundef zeroext 0, i32 noundef %38, i32 noundef %39) #16
  %44 = tail call i32 @nghttp2_session_add_item(ptr noundef nonnull %36, ptr noundef nonnull %41)
  %.not.i = icmp eq i32 %44, 0
  br i1 %.not.i, label %nghttp2_session_add_window_update.exit, label %45

45:                                               ; preds = %43
  tail call void @nghttp2_frame_window_update_free(ptr noundef nonnull %41) #16
  tail call void @nghttp2_mem_free(ptr noundef nonnull %40, ptr noundef nonnull %41) #16
  br label %nghttp2_session_add_window_update.exit.thread

nghttp2_session_add_window_update.exit:           ; preds = %43
  store i32 0, ptr %32, align 8, !tbaa !223
  br label %nghttp2_session_add_window_update.exit.thread

nghttp2_session_add_window_update.exit.thread:    ; preds = %35, %45, %29, %nghttp2_session_add_window_update.exit, %13, %21, %8
  %.0 = phi i32 [ %12, %8 ], [ %28, %21 ], [ 0, %13 ], [ 0, %nghttp2_session_add_window_update.exit ], [ 0, %29 ], [ -901, %35 ], [ %44, %45 ]
  ret i32 %.0
}